Certificate:
    Data:
        Version: 3 (0x2)
        Serial Number: 26132 (0x6614)
    Signature Algorithm: sha512WithRSAEncryption
        Issuer: C=US, O=Test Security, OU=Certificate Authority Example
        Validity
            Not Before: Jan 28 20:06:14 2022 GMT
            Not After : Jan 28 20:06:14 2024 GMT
        Subject: C=US, O=Global Security, CN=npe1
        Subject Public Key Info:
            Public Key Algorithm: rsaEncryption
                Public-Key: (1024 bit)
                Modulus:
                    00:e7:ad:ef:e9:92:52:be:e5:01:0c:d3:a4:02:20:
                    4a:d5:c3:44:1e:ed:8f:ef:44:d7:05:08:7f:88:90:
                    73:4b:57:83:8a:a9:4b:a1:c5:c9:91:b5:3c:db:74:
                    90:ce:89:9d:31:d2:5c:64:1d:6e:9f:d3:6d:01:09:
                    15:5d:26:c1:cd:59:0a:c2:8a:0b:f2:54:a3:d7:59:
                    f3:f0:4e:38:e6:21:a9:de:b3:60:b2:ca:dd:eb:e4:
                    dc:65:b6:b4:3f:c1:f7:fb:92:db:0c:41:9a:bb:4e:
                    97:ee:1b:e5:8b:14:44:57:51:f6:6c:09:1c:0d:89:
                    8c:9e:c1:c5:7f:4c:ec:a7:1f
                Exponent: 65537 (0x10001)
        X509v3 extensions:
            X509v3 Key Usage: critical
                Digital Signature, Key Encipherment
            X509v3 Extended Key Usage: 
                TLS Web Server Authentication, TLS Web Client Authentication
            X509v3 Basic Constraints: critical
                CA:FALSE
            X509v3 Subject Alternative Name: 
                DNS:localhost, IP Address:127.0.0.1
    Signature Algorithm: sha512WithRSAEncryption
         b1:c2:6c:7e:7e:cc:30:0d:e3:12:95:71:20:5e:11:68:45:62:
         1e:f2:5b:3c:f2:82:c6:57:14:3a:1f:9c:5f:d4:8d:ee:85:4d:
         27:44:51:c2:5d:2d:a2:50:4e:47:68:8c:29:99:6b:11:2c:d1:
         f5:f8:58:6c:ff:87:80:1b:42:35:38:ed:e5:ed:94:9a:ff:7d:
         06:73:3a:a2:97:b9:f2:db:53:f0:19:18:83:ff:91:f9:53:56:
         77:0b:a5:fb:83:49:e0:8c:0c:26:af:6d:92:81:4b:01:6e:0c:
         f3:3c:21:52:8e:e0:a2:ac:9d:69:51:87:98:2c:66:b7:d6:79:
         2e:d0
-----BEGIN CERTIFICATE-----
MIICVTCCAb6gAwIBAgICZhQwDQYJKoZIhvcNAQENBQAwTTELMAkGA1UEBhMCVVMx
FjAUBgNVBAoMDVRlc3QgU2VjdXJpdHkxJjAkBgNVBAsMHUNlcnRpZmljYXRlIEF1
dGhvcml0eSBFeGFtcGxlMB4XDTIyMDEyODIwMDYxNFoXDTI0MDEyODIwMDYxNFow
NjELMAkGA1UEBhMCVVMxGDAWBgNVBAoMD0dsb2JhbCBTZWN1cml0eTENMAsGA1UE
AwwEbnBlMTCBnzANBgkqhkiG9w0BAQEFAAOBjQAwgYkCgYEA563v6ZJSvuUBDNOk
AiBK1cNEHu2P70TXBQh/iJBzS1eDiqlLocXJkbU823SQzomdMdJcZB1un9NtAQkV
XSbBzVkKwooL8lSj11nz8E445iGp3rNgssrd6+TcZba0P8H3+5LbDEGau06X7hvl
ixREV1H2bAkcDYmMnsHFf0zspx8CAwEAAaNbMFkwDgYDVR0PAQH/BAQDAgWgMB0G
A1UdJQQWMBQGCCsGAQUFBwMBBggrBgEFBQcDAjAMBgNVHRMBAf8EAjAAMBoGA1Ud
EQQTMBGCCWxvY2FsaG9zdIcEfwAAATANBgkqhkiG9w0BAQ0FAAOBgQCxwmx+fsww
DeMSlXEgXhFoRWIe8ls88oLGVxQ6H5xf1I3uhU0nRFHCXS2iUE5HaIwpmWsRLNH1
+Fhs/4eAG0I1OO3l7ZSa/30Gczqil7ny21PwGRiD/5H5U1Z3C6X7g0ngjAwmr22S
gUsBbgzzPCFSjuCirJ1pUYeYLGa31nku0A==
-----END CERTIFICATE-----
