Certificate:
    Data:
        Version: 3 (0x2)
        Serial Number: 38484 (0x9654)
    Signature Algorithm: sha512WithRSAEncryption
        Issuer: C=US, O=Test Security, OU=Certificate Authority Example
        Validity
            Not Before: Jan 28 02:11:10 2022 GMT
            Not After : Jan 28 02:11:10 2024 GMT
        Subject: C=US, O=Global Security, CN=npe1
        Subject Public Key Info:
            Public Key Algorithm: rsaEncryption
                Public-Key: (1024 bit)
                Modulus:
                    00:d8:1a:b8:62:8a:6d:51:55:75:59:a1:b2:c6:b9:
                    f8:f7:23:58:b6:74:c2:e3:ab:fa:e2:f5:03:8d:48:
                    2b:6a:8e:f2:93:cc:04:d1:09:45:55:81:13:3e:b7:
                    b9:a0:c0:c7:a3:d3:e3:62:c7:7f:1d:6f:9e:f0:af:
                    79:4a:4e:11:28:2f:60:dc:6d:f4:e7:c3:49:41:3f:
                    0b:60:ad:8d:75:36:5b:6a:c8:23:53:0b:1c:33:18:
                    81:91:d9:7d:af:72:da:a3:fc:fa:16:70:ad:bc:1b:
                    3e:38:46:0e:f6:5c:d2:0a:76:03:68:7d:05:70:24:
                    db:92:06:43:8e:20:52:ba:ed
                Exponent: 65537 (0x10001)
        X509v3 extensions:
            X509v3 Key Usage: critical
                Digital Signature, Key Encipherment
            X509v3 Extended Key Usage: 
                TLS Web Server Authentication, TLS Web Client Authentication
            X509v3 Basic Constraints: critical
                CA:FALSE
            X509v3 Subject Alternative Name: 
                DNS:localhost, IP Address:127.0.0.1
    Signature Algorithm: sha512WithRSAEncryption
         a1:17:7b:ad:2e:09:de:31:df:d7:8b:e1:43:14:5b:e6:5d:25:
         16:cd:8f:d8:d1:12:c6:ad:de:08:25:34:ca:9b:0e:bd:1d:f6:
         d8:46:f9:95:c9:60:1d:ce:97:84:ba:bd:fe:74:2b:5c:1c:f9:
         6d:34:ec:d3:05:4b:49:2b:79:b3:ef:3e:29:5e:ae:94:75:3c:
         8d:7e:b9:46:5c:84:3a:76:04:a8:31:1d:59:fb:b6:de:e8:7a:
         92:21:b3:1c:a0:12:6f:f4:5f:1f:15:2c:f7:20:b9:6f:12:4c:
         2b:49:b0:89:76:c0:08:2f:0b:61:e1:94:a3:b8:be:47:f3:f3:
         f4:d7
-----BEGIN CERTIFICATE-----
MIICVjCCAb+gAwIBAgIDAJZUMA0GCSqGSIb3DQEBDQUAME0xCzAJBgNVBAYTAlVT
MRYwFAYDVQQKDA1UZXN0IFNlY3VyaXR5MSYwJAYDVQQLDB1DZXJ0aWZpY2F0ZSBB
dXRob3JpdHkgRXhhbXBsZTAeFw0yMjAxMjgwMjExMTBaFw0yNDAxMjgwMjExMTBa
MDYxCzAJBgNVBAYTAlVTMRgwFgYDVQQKDA9HbG9iYWwgU2VjdXJpdHkxDTALBgNV
BAMMBG5wZTEwgZ8wDQYJKoZIhvcNAQEBBQADgY0AMIGJAoGBANgauGKKbVFVdVmh
ssa5+PcjWLZ0wuOr+uL1A41IK2qO8pPMBNEJRVWBEz63uaDAx6PT42LHfx1vnvCv
eUpOESgvYNxt9OfDSUE/C2CtjXU2W2rII1MLHDMYgZHZfa9y2qP8+hZwrbwbPjhG
DvZc0gp2A2h9BXAk25IGQ44gUrrtAgMBAAGjWzBZMA4GA1UdDwEB/wQEAwIFoDAd
BgNVHSUEFjAUBggrBgEFBQcDAQYIKwYBBQUHAwIwDAYDVR0TAQH/BAIwADAaBgNV
HREEEzARgglsb2NhbGhvc3SHBH8AAAEwDQYJKoZIhvcNAQENBQADgYEAoRd7rS4J
3jHf14vhQxRb5l0lFs2P2NESxq3eCCU0ypsOvR322Eb5lclgHc6XhLq9/nQrXBz5
bTTs0wVLSSt5s+8+KV6ulHU8jX65RlyEOnYEqDEdWfu23uh6kiGzHKASb/RfHxUs
9yC5bxJMK0mwiXbACC8LYeGUo7i+R/Pz9Nc=
-----END CERTIFICATE-----
