Certificate:
    Data:
        Version: 3 (0x2)
        Serial Number: 37959 (0x9447)
    Signature Algorithm: sha512WithRSAEncryption
        Issuer: C=US, O=Test Security, OU=Certificate Authority Example
        Validity
            Not Before: Jan 28 02:11:10 2022 GMT
            Not After : Jan 28 02:11:10 2024 GMT
        Subject: C=US, O=Global Security, CN=npe2
        Subject Public Key Info:
            Public Key Algorithm: rsaEncryption
                Public-Key: (1024 bit)
                Modulus:
                    00:d3:a3:f7:ec:1b:b1:78:ed:a3:c8:a2:86:ee:41:
                    51:e3:e8:16:cb:75:f4:36:7f:31:4a:72:0d:73:dc:
                    6f:2c:c0:80:47:32:e0:14:71:b9:eb:70:fd:97:ae:
                    52:c8:d1:55:75:9a:4e:23:33:74:c0:0e:f6:6c:e0:
                    25:50:ec:da:05:fc:a8:cf:67:96:9b:32:cb:70:a6:
                    c4:8a:12:14:95:68:7f:74:6a:be:31:18:6a:b8:4f:
                    e2:de:18:4c:56:4d:2e:b9:22:68:6b:41:b7:d6:05:
                    df:9e:30:56:94:9a:22:18:bd:63:7d:34:51:79:fa:
                    d8:be:4e:d8:88:93:5f:a0:a5
                Exponent: 65537 (0x10001)
        X509v3 extensions:
            X509v3 Key Usage: critical
                Digital Signature, Key Encipherment
            X509v3 Extended Key Usage: 
                TLS Web Server Authentication, TLS Web Client Authentication
            X509v3 Basic Constraints: critical
                CA:FALSE
            X509v3 Subject Alternative Name: 
                DNS:localhost, IP Address:127.0.0.1
    Signature Algorithm: sha512WithRSAEncryption
         07:84:e0:f2:64:19:c5:52:0a:5c:6d:56:a3:f2:3c:bc:e4:d5:
         44:6b:32:7f:02:43:b4:ef:a3:94:0f:74:20:45:de:3b:29:e6:
         00:05:ba:41:43:81:8c:24:a5:0b:4c:f8:84:29:27:14:9a:dc:
         be:ba:b8:18:8e:f1:b3:0e:fe:7e:22:9e:5d:de:46:61:ae:ec:
         3b:f2:39:36:9b:6e:70:68:a2:f7:97:e4:39:6b:dc:a5:3b:ef:
         e2:25:b5:3b:16:0c:65:59:2c:59:db:56:46:e1:56:5d:79:9f:
         3b:4c:f6:43:ab:ce:5b:82:f6:11:d4:8b:40:0b:57:40:6d:15:
         c5:b8
-----BEGIN CERTIFICATE-----
MIICVjCCAb+gAwIBAgIDAJRHMA0GCSqGSIb3DQEBDQUAME0xCzAJBgNVBAYTAlVT
MRYwFAYDVQQKDA1UZXN0IFNlY3VyaXR5MSYwJAYDVQQLDB1DZXJ0aWZpY2F0ZSBB
dXRob3JpdHkgRXhhbXBsZTAeFw0yMjAxMjgwMjExMTBaFw0yNDAxMjgwMjExMTBa
MDYxCzAJBgNVBAYTAlVTMRgwFgYDVQQKDA9HbG9iYWwgU2VjdXJpdHkxDTALBgNV
BAMMBG5wZTIwgZ8wDQYJKoZIhvcNAQEBBQADgY0AMIGJAoGBANOj9+wbsXjto8ii
hu5BUePoFst19DZ/MUpyDXPcbyzAgEcy4BRxuetw/ZeuUsjRVXWaTiMzdMAO9mzg
JVDs2gX8qM9nlpsyy3CmxIoSFJVof3RqvjEYarhP4t4YTFZNLrkiaGtBt9YF354w
VpSaIhi9Y300UXn62L5O2IiTX6ClAgMBAAGjWzBZMA4GA1UdDwEB/wQEAwIFoDAd
BgNVHSUEFjAUBggrBgEFBQcDAQYIKwYBBQUHAwIwDAYDVR0TAQH/BAIwADAaBgNV
HREEEzARgglsb2NhbGhvc3SHBH8AAAEwDQYJKoZIhvcNAQENBQADgYEAB4Tg8mQZ
xVIKXG1Wo/I8vOTVRGsyfwJDtO+jlA90IEXeOynmAAW6QUOBjCSlC0z4hCknFJrc
vrq4GI7xsw7+fiKeXd5GYa7sO/I5NptucGii95fkOWvcpTvv4iW1OxYMZVksWdtW
RuFWXXmfO0z2Q6vOW4L2EdSLQAtXQG0Vxbg=
-----END CERTIFICATE-----
