Certificate:
    Data:
        Version: 3 (0x2)
        Serial Number: 38196 (0x9534)
    Signature Algorithm: sha512WithRSAEncryption
        Issuer: C=US, O=Test Security, OU=Certificate Authority Example
        Validity
            Not Before: Jan 28 20:06:14 2022 GMT
            Not After : Jan 28 20:06:14 2024 GMT
        Subject: C=US, O=Global Security, CN=npe2
        Subject Public Key Info:
            Public Key Algorithm: rsaEncryption
                Public-Key: (1024 bit)
                Modulus:
                    00:b6:03:4c:5f:53:cc:bb:2c:f5:dd:d2:23:57:23:
                    ee:93:73:e5:ca:b1:f2:1c:0b:f1:c1:dd:e1:6b:75:
                    8c:03:5a:0a:85:89:61:09:c7:87:36:0f:d7:6b:1c:
                    3c:85:9a:78:7b:cf:88:a6:d9:2d:5a:ce:a0:15:17:
                    50:89:07:35:cf:13:6d:a1:05:78:0f:82:88:a5:02:
                    3a:9b:a5:3f:07:5f:2d:fb:e3:fa:1f:a3:12:e9:fa:
                    87:95:2c:62:7f:de:d1:2b:05:8a:58:44:f7:06:4e:
                    61:11:8b:e3:2d:63:41:c4:e8:6e:12:f1:de:b4:de:
                    4e:34:4c:c9:9d:a9:a6:8b:3f
                Exponent: 65537 (0x10001)
        X509v3 extensions:
            X509v3 Key Usage: critical
                Digital Signature, Key Encipherment
            X509v3 Extended Key Usage: 
                TLS Web Server Authentication, TLS Web Client Authentication
            X509v3 Basic Constraints: critical
                CA:FALSE
            X509v3 Subject Alternative Name: 
                DNS:localhost, IP Address:127.0.0.1
    Signature Algorithm: sha512WithRSAEncryption
         95:6c:ca:f1:09:44:b2:c7:63:ad:65:41:23:aa:26:9c:7b:c8:
         91:51:fc:ac:84:f0:d4:c3:9c:af:18:73:5b:a6:d5:29:e3:3a:
         2a:b4:14:83:75:c1:e5:48:59:61:d6:e6:18:6b:84:28:61:ac:
         a2:ef:ad:8f:2b:5a:81:81:b4:71:79:25:97:20:6c:3b:78:b7:
         c3:0f:0f:89:96:e6:a2:a5:2a:2e:09:5c:ca:61:bb:68:54:2a:
         30:80:6a:8e:f4:6c:5a:6c:05:f3:d4:c8:d6:50:00:37:9c:04:
         f1:59:3e:7a:af:b0:e4:9e:a0:c0:4b:d0:55:ac:c6:44:1f:8d:
         6f:90
-----BEGIN CERTIFICATE-----
MIICVjCCAb+gAwIBAgIDAJU0MA0GCSqGSIb3DQEBDQUAME0xCzAJBgNVBAYTAlVT
MRYwFAYDVQQKDA1UZXN0IFNlY3VyaXR5MSYwJAYDVQQLDB1DZXJ0aWZpY2F0ZSBB
dXRob3JpdHkgRXhhbXBsZTAeFw0yMjAxMjgyMDA2MTRaFw0yNDAxMjgyMDA2MTRa
MDYxCzAJBgNVBAYTAlVTMRgwFgYDVQQKDA9HbG9iYWwgU2VjdXJpdHkxDTALBgNV
BAMMBG5wZTIwgZ8wDQYJKoZIhvcNAQEBBQADgY0AMIGJAoGBALYDTF9TzLss9d3S
I1cj7pNz5cqx8hwL8cHd4Wt1jANaCoWJYQnHhzYP12scPIWaeHvPiKbZLVrOoBUX
UIkHNc8TbaEFeA+CiKUCOpulPwdfLfvj+h+jEun6h5UsYn/e0SsFilhE9wZOYRGL
4y1jQcTobhLx3rTeTjRMyZ2ppos/AgMBAAGjWzBZMA4GA1UdDwEB/wQEAwIFoDAd
BgNVHSUEFjAUBggrBgEFBQcDAQYIKwYBBQUHAwIwDAYDVR0TAQH/BAIwADAaBgNV
HREEEzARgglsb2NhbGhvc3SHBH8AAAEwDQYJKoZIhvcNAQENBQADgYEAlWzK8QlE
ssdjrWVBI6omnHvIkVH8rITw1MOcrxhzW6bVKeM6KrQUg3XB5UhZYdbmGGuEKGGs
ou+tjytagYG0cXkllyBsO3i3ww8PiZbmoqUqLglcymG7aFQqMIBqjvRsWmwF89TI
1lAAN5wE8Vk+eq+w5J6gwEvQVazGRB+Nb5A=
-----END CERTIFICATE-----
