Certificate:
    Data:
        Version: 3 (0x2)
        Serial Number: 26643 (0x6813)
    Signature Algorithm: sha512WithRSAEncryption
        Issuer: C=US, O=Test Security, OU=Certificate Authority Example
        Validity
            Not Before: Jan 28 20:06:14 2022 GMT
            Not After : Jan 28 20:06:14 2024 GMT
        Subject: C=US, O=Global Security, CN=server
        Subject Public Key Info:
            Public Key Algorithm: rsaEncryption
                Public-Key: (1024 bit)
                Modulus:
                    00:b5:eb:78:e1:0f:32:73:0b:11:ea:b3:69:74:89:
                    66:77:25:3a:3a:1d:d8:fe:ba:95:94:b4:1b:47:c6:
                    35:4c:d0:b1:4f:be:d0:7c:8b:6f:cb:d7:ce:1a:ae:
                    88:da:00:ac:ac:13:3c:64:94:31:da:d7:f0:77:96:
                    c9:5c:e2:92:59:c4:37:67:8c:89:ae:b4:dc:2b:29:
                    36:70:70:6d:a5:04:4c:f8:38:bc:85:9d:6a:32:11:
                    ec:3d:03:4e:46:f7:b7:4f:f4:63:af:cd:6f:b4:39:
                    20:4d:f3:8a:91:5c:ea:32:9e:b3:c6:9f:97:68:86:
                    8f:88:95:54:41:a3:b8:ee:a7
                Exponent: 65537 (0x10001)
        X509v3 extensions:
            X509v3 Key Usage: critical
                Digital Signature, Key Encipherment
            X509v3 Extended Key Usage: 
                TLS Web Server Authentication, TLS Web Client Authentication
            X509v3 Basic Constraints: critical
                CA:FALSE
            X509v3 Subject Alternative Name: 
                DNS:localhost, IP Address:127.0.0.1
    Signature Algorithm: sha512WithRSAEncryption
         98:35:d7:ab:b2:05:eb:6d:2e:8e:ed:3b:f7:73:4c:25:60:70:
         5c:5b:8d:1d:74:86:6a:92:cc:1a:f9:a8:96:d8:27:44:9e:f4:
         04:10:88:1b:6d:62:57:08:41:ad:c1:fd:68:c8:90:f4:e7:5e:
         a1:e6:29:57:f4:35:64:a1:47:b7:83:68:a0:53:77:9b:77:03:
         d3:a4:e4:d9:84:c9:80:4b:12:93:bf:ae:9c:24:74:f7:fd:0f:
         a4:e9:ee:5a:86:0d:33:e0:58:d2:6f:1a:65:30:84:61:d4:38:
         c1:7e:06:4d:fd:ef:8b:6f:54:bb:34:be:3c:78:8c:e4:0f:51:
         2e:1f
-----BEGIN CERTIFICATE-----
MIICVzCCAcCgAwIBAgICaBMwDQYJKoZIhvcNAQENBQAwTTELMAkGA1UEBhMCVVMx
FjAUBgNVBAoMDVRlc3QgU2VjdXJpdHkxJjAkBgNVBAsMHUNlcnRpZmljYXRlIEF1
dGhvcml0eSBFeGFtcGxlMB4XDTIyMDEyODIwMDYxNFoXDTI0MDEyODIwMDYxNFow
ODELMAkGA1UEBhMCVVMxGDAWBgNVBAoMD0dsb2JhbCBTZWN1cml0eTEPMA0GA1UE
AwwGc2VydmVyMIGfMA0GCSqGSIb3DQEBAQUAA4GNADCBiQKBgQC163jhDzJzCxHq
s2l0iWZ3JTo6Hdj+upWUtBtHxjVM0LFPvtB8i2/L184arojaAKysEzxklDHa1/B3
lslc4pJZxDdnjImutNwrKTZwcG2lBEz4OLyFnWoyEew9A05G97dP9GOvzW+0OSBN
84qRXOoynrPGn5doho+IlVRBo7jupwIDAQABo1swWTAOBgNVHQ8BAf8EBAMCBaAw
HQYDVR0lBBYwFAYIKwYBBQUHAwEGCCsGAQUFBwMCMAwGA1UdEwEB/wQCMAAwGgYD
VR0RBBMwEYIJbG9jYWxob3N0hwR/AAABMA0GCSqGSIb3DQEBDQUAA4GBAJg116uy
BettLo7tO/dzTCVgcFxbjR10hmqSzBr5qJbYJ0Se9AQQiBttYlcIQa3B/WjIkPTn
XqHmKVf0NWShR7eDaKBTd5t3A9Ok5NmEyYBLEpO/rpwkdPf9D6Tp7lqGDTPgWNJv
GmUwhGHUOMF+Bk3974tvVLs0vjx4jOQPUS4f
-----END CERTIFICATE-----
