Certificate:
    Data:
        Version: 3 (0x2)
        Serial Number: 29459 (0x7313)
    Signature Algorithm: sha512WithRSAEncryption
        Issuer: C=US, O=Test Security, OU=Certificate Authority Example
        Validity
            Not Before: Jan 28 02:11:10 2022 GMT
            Not After : Jan 28 02:11:10 2024 GMT
        Subject: C=US, O=Global Security, CN=server
        Subject Public Key Info:
            Public Key Algorithm: rsaEncryption
                Public-Key: (1024 bit)
                Modulus:
                    00:9d:f1:31:a1:65:82:1e:00:b6:2e:71:a8:d5:9a:
                    89:64:e2:71:4f:b2:1b:de:3d:62:b4:82:28:4b:23:
                    d8:9b:c3:ad:89:74:54:29:b2:25:9c:e3:ac:01:c4:
                    d2:b3:28:84:9c:9d:9b:79:e7:70:b4:f8:fe:c7:3c:
                    99:d4:82:35:0f:f0:c9:fb:4d:ba:65:f2:ac:85:76:
                    23:46:3f:39:63:94:1a:03:d9:c3:1d:78:a7:b1:e2:
                    e7:69:d7:7b:d9:dd:94:0a:21:13:69:86:6a:0a:1d:
                    03:1d:49:fd:87:1a:1b:6c:d3:96:80:95:1e:1d:48:
                    eb:c6:73:de:e0:07:46:8d:73
                Exponent: 65537 (0x10001)
        X509v3 extensions:
            X509v3 Key Usage: critical
                Digital Signature, Key Encipherment
            X509v3 Extended Key Usage: 
                TLS Web Server Authentication, TLS Web Client Authentication
            X509v3 Basic Constraints: critical
                CA:FALSE
            X509v3 Subject Alternative Name: 
                DNS:localhost, IP Address:127.0.0.1
    Signature Algorithm: sha512WithRSAEncryption
         15:56:b6:e5:be:9e:3d:27:c9:ff:eb:b1:fb:9c:92:b0:46:27:
         e7:ce:fb:82:08:c6:3d:99:bd:48:9b:0d:24:b2:28:27:7d:e5:
         92:35:42:0d:fe:e9:88:16:31:55:22:b3:17:1a:1d:95:7e:bd:
         d5:86:f4:59:f9:0f:f2:7d:33:4d:eb:b0:11:fc:ed:4f:af:45:
         15:2c:54:4e:49:62:99:bf:7d:95:ce:c5:ef:42:e5:07:f5:96:
         fa:7e:54:eb:e4:02:b1:21:1f:7c:91:f8:4c:e8:c2:59:42:cf:
         e9:7f:c6:d4:2e:c0:2a:ba:5b:37:70:c5:d8:37:c8:74:ff:6b:
         cb:fc
-----BEGIN CERTIFICATE-----
MIICVzCCAcCgAwIBAgICcxMwDQYJKoZIhvcNAQENBQAwTTELMAkGA1UEBhMCVVMx
FjAUBgNVBAoMDVRlc3QgU2VjdXJpdHkxJjAkBgNVBAsMHUNlcnRpZmljYXRlIEF1
dGhvcml0eSBFeGFtcGxlMB4XDTIyMDEyODAyMTExMFoXDTI0MDEyODAyMTExMFow
ODELMAkGA1UEBhMCVVMxGDAWBgNVBAoMD0dsb2JhbCBTZWN1cml0eTEPMA0GA1UE
AwwGc2VydmVyMIGfMA0GCSqGSIb3DQEBAQUAA4GNADCBiQKBgQCd8TGhZYIeALYu
cajVmolk4nFPshvePWK0gihLI9ibw62JdFQpsiWc46wBxNKzKIScnZt553C0+P7H
PJnUgjUP8Mn7Tbpl8qyFdiNGPzljlBoD2cMdeKex4udp13vZ3ZQKIRNphmoKHQMd
Sf2HGhts05aAlR4dSOvGc97gB0aNcwIDAQABo1swWTAOBgNVHQ8BAf8EBAMCBaAw
HQYDVR0lBBYwFAYIKwYBBQUHAwEGCCsGAQUFBwMCMAwGA1UdEwEB/wQCMAAwGgYD
VR0RBBMwEYIJbG9jYWxob3N0hwR/AAABMA0GCSqGSIb3DQEBDQUAA4GBABVWtuW+
nj0nyf/rsfuckrBGJ+fO+4IIxj2ZvUibDSSyKCd95ZI1Qg3+6YgWMVUisxcaHZV+
vdWG9Fn5D/J9M03rsBH87U+vRRUsVE5JYpm/fZXOxe9C5Qf1lvp+VOvkArEhH3yR
+EzowllCz+l/xtQuwCq6Wzdwxdg3yHT/a8v8
-----END CERTIFICATE-----
