Certificate:
    Data:
        Version: 3 (0x2)
        Serial Number: 8468 (0x2114)
    Signature Algorithm: sha512WithRSAEncryption
        Issuer: C=US, O=Test Security, OU=Certificate Authority Example
        Validity
            Not Before: Jan 28 20:06:14 2022 GMT
            Not After : Jan 28 20:06:14 2024 GMT
        Subject: CN=uid=ppena,ou=people,dc=umich,dc=edu
        Subject Public Key Info:
            Public Key Algorithm: rsaEncryption
                Public-Key: (1024 bit)
                Modulus:
                    00:e7:24:c5:43:99:86:e1:45:9a:e2:7d:50:e6:1b:
                    3a:9b:5d:bb:81:52:ed:5e:96:78:62:57:b1:58:02:
                    7e:ae:b2:79:67:db:b7:ad:b5:02:bf:d7:8b:90:3d:
                    62:28:de:23:02:45:d4:d5:23:6d:48:91:55:60:61:
                    e1:75:32:6f:e7:13:51:21:b6:6e:d0:69:a5:c9:a3:
                    d5:df:75:23:14:11:a0:82:bb:69:56:02:b4:27:e5:
                    51:77:bc:97:3b:38:38:78:df:57:9e:17:41:3b:02:
                    c5:ef:bd:7d:a9:7d:f1:41:3b:c5:38:96:bd:18:eb:
                    a2:ce:3d:a8:f6:8b:95:11:b5
                Exponent: 65537 (0x10001)
        X509v3 extensions:
            X509v3 Key Usage: critical
                Digital Signature, Key Encipherment
            X509v3 Extended Key Usage: 
                TLS Web Server Authentication, TLS Web Client Authentication
            X509v3 Basic Constraints: critical
                CA:FALSE
            X509v3 Subject Alternative Name: 
                DNS:localhost, IP Address:127.0.0.1
    Signature Algorithm: sha512WithRSAEncryption
         60:3e:2a:50:c8:bf:fb:0f:73:c9:df:df:71:3b:54:d7:0b:fc:
         1e:86:3b:2a:9a:a4:6c:cf:26:36:0a:94:eb:6e:79:f4:84:a2:
         1b:e2:94:7e:0a:74:48:72:80:c8:15:6f:bd:39:c8:57:76:8a:
         4b:19:47:47:2a:d2:71:b6:df:11:ca:f9:6b:2a:50:40:48:0c:
         d3:22:43:0a:da:ac:7d:6e:11:6e:dd:bd:8c:4c:48:f6:89:fa:
         97:dc:ab:c3:54:d1:96:ad:94:c5:93:f8:53:43:5b:55:8f:b0:
         83:aa:bf:f6:40:62:62:c5:4e:21:49:04:6b:99:e4:ce:79:e2:
         c9:b2
-----BEGIN CERTIFICATE-----
MIICTTCCAbagAwIBAgICIRQwDQYJKoZIhvcNAQENBQAwTTELMAkGA1UEBhMCVVMx
FjAUBgNVBAoMDVRlc3QgU2VjdXJpdHkxJjAkBgNVBAsMHUNlcnRpZmljYXRlIEF1
dGhvcml0eSBFeGFtcGxlMB4XDTIyMDEyODIwMDYxNFoXDTI0MDEyODIwMDYxNFow
LjEsMCoGA1UEAwwjdWlkPXBwZW5hLG91PXBlb3BsZSxkYz11bWljaCxkYz1lZHUw
gZ8wDQYJKoZIhvcNAQEBBQADgY0AMIGJAoGBAOckxUOZhuFFmuJ9UOYbOptdu4FS
7V6WeGJXsVgCfq6yeWfbt621Ar/Xi5A9YijeIwJF1NUjbUiRVWBh4XUyb+cTUSG2
btBppcmj1d91IxQRoIK7aVYCtCflUXe8lzs4OHjfV54XQTsCxe+9fal98UE7xTiW
vRjros49qPaLlRG1AgMBAAGjWzBZMA4GA1UdDwEB/wQEAwIFoDAdBgNVHSUEFjAU
BggrBgEFBQcDAQYIKwYBBQUHAwIwDAYDVR0TAQH/BAIwADAaBgNVHREEEzARggls
b2NhbGhvc3SHBH8AAAEwDQYJKoZIhvcNAQENBQADgYEAYD4qUMi/+w9zyd/fcTtU
1wv8HoY7KpqkbM8mNgqU62559ISiG+KUfgp0SHKAyBVvvTnIV3aKSxlHRyrScbbf
Ecr5aypQQEgM0yJDCtqsfW4Rbt29jExI9on6l9yrw1TRlq2UxZP4U0NbVY+wg6q/
9kBiYsVOIUkEa5nkznniybI=
-----END CERTIFICATE-----
